; Function Attrs: nounwind uwtable
define internal noundef i32 @_dt_ctl_log_message_timeout_callback(ptr readnone captures(none) %0) #0 {
  %2 = load ptr, ptr getelementptr inbounds nuw (i8, ptr @darktable, i64 88), align 8, !tbaa !107
  %3 = getelementptr inbounds nuw i8, ptr %2, i64 8960
  %4 = tail call i32 @pthread_mutex_lock(ptr noundef nonnull %3) #13
  %5 = getelementptr inbounds nuw i8, ptr %2, i64 944
  %6 = load i32, ptr %5, align 8, !tbaa !96
  %7 = getelementptr inbounds nuw i8, ptr %2, i64 948
  store i32 %6, ptr %7, align 4, !tbaa !95
  %8 = getelementptr inbounds nuw i8, ptr %2, i64 8952
  store i32 0, ptr %8, align 8, !tbaa !98
  %9 = tail call i32 @pthread_mutex_unlock(ptr noundef nonnull %3) #13
  %10 = load i32, ptr getelementptr inbounds nuw (i8, ptr @darktable, i64 3128), align 8, !tbaa !147
  %11 = and i32 %10, 1
  %12 = icmp ne i32 %11, 0
  %13 = load i32, ptr getelementptr inbounds nuw (i8, ptr @darktable, i64 3292), align 4
  %14 = icmp ne i32 %13, 0
  %or.cond.i = select i1 %12, i1 %14, i1 false
  br i1 %or.cond.i, label %15, label %dt_control_log_redraw.exit

15:                                               ; preds = %1
  %16 = load i32, ptr getelementptr inbounds nuw (i8, ptr @darktable, i64 8), align 8, !tbaa !115
  %17 = and i32 %16, 1048576
  %.not.i = icmp eq i32 %17, 0
  br i1 %.not.i, label %dt_control_log_redraw.exit, label %18

18:                                               ; preds = %15
  tail call void (ptr, ...) @dt_print_ext(ptr noundef nonnull @.str.39, ptr noundef nonnull @.str.44, ptr noundef nonnull @.str.41, i32 noundef 774, ptr noundef nonnull @__FUNCTION__.dt_control_log_redraw) #13
  br label %dt_control_log_redraw.exit

dt_control_log_redraw.exit:                       ; preds = %1, %15, %18
  %19 = load ptr, ptr getelementptr inbounds nuw (i8, ptr @darktable, i64 96), align 8, !tbaa !148
  tail call void (ptr, i32, ...) @dt_control_signal_raise(ptr noundef %19, i32 noundef 40) #13
  ret i32 0
}